target datalayout = "e-m:e-p270:32:32-p271:32:32-p272:64:64-i64:64-i128:128-f80:128-n8:16:32:64-S128"
target triple = "x86_64-pc-linux-gnu"

; Function Attrs: nounwind uwtable
define hidden i32 @encodeDeviceID(i32 noundef %0, i32 noundef %1, i32 noundef %2) #0 {
  %4 = alloca i32, align 4
  %5 = alloca i32, align 4
  %6 = alloca i32, align 4
  store i32 %0, ptr %4, align 4
  store i32 %1, ptr %5, align 4
  store i32 %2, ptr %6, align 4
  %7 = load i32, ptr %4, align 4
  %8 = and i32 %7, 1023
  %9 = shl i32 %8, 20
  %10 = load i32, ptr %5, align 4
  %11 = and i32 %10, 1023
  %12 = shl i32 %11, 10
  %13 = or i32 %9, %12
  %14 = load i32, ptr %6, align 4
  %15 = and i32 %14, 1023
  %16 = or i32 %13, %15
  %17 = add nsw i32 %16, 1
  ret i32 %17
}