; Function Attrs: mustprogress nofree norecurse nosync nounwind willreturn memory(none) uwtable
define hidden range(i32 1, 1073741825) i32 @encodeDeviceID(i32 noundef %0, i32 noundef %1, i32 noundef %2) local_unnamed_addr #2 {
  %4 = shl i32 %0, 20
  %5 = and i32 %4, 1072693248
  %6 = shl i32 %1, 10
  %7 = and i32 %6, 1047552
  %8 = or disjoint i32 %5, %7
  %9 = and i32 %2, 1023
  %10 = add nuw nsw i32 %9, 1
  %11 = add nuw nsw i32 %10, %8
  ret i32 %11
}